; Function Attrs: mustprogress nofree norecurse nosync nounwind memory(argmem: readwrite) uwtable
define internal noundef ptr @_ZL22stbi__resample_row_h_2PhS_S_ii(ptr noundef returned writeonly initializes((0, 2)) %0, ptr noundef readonly captures(none) %1, ptr readnone captures(none) %2, i32 noundef %3, i32 %4) #14 {
  %6 = icmp eq i32 %3, 1
  %7 = load i8, ptr %1, align 1, !tbaa !23
  br i1 %6, label %8, label %10

8:                                                ; preds = %5
  %9 = getelementptr inbounds nuw i8, ptr %0, i64 1
  store i8 %7, ptr %9, align 1, !tbaa !23
  store i8 %7, ptr %0, align 1, !tbaa !23
  br label %65

10:                                               ; preds = %5
  store i8 %7, ptr %0, align 1, !tbaa !23
  %11 = zext i8 %7 to i16
  %12 = mul nuw nsw i16 %11, 3
  %13 = getelementptr inbounds nuw i8, ptr %1, i64 1
  %14 = load i8, ptr %13, align 1, !tbaa !23
  %15 = zext i8 %14 to i16
  %16 = add nuw nsw i16 %15, 2
  %17 = add nuw nsw i16 %16, %12
  %18 = lshr i16 %17, 2
  %19 = trunc nuw i16 %18 to i8
  %20 = getelementptr inbounds nuw i8, ptr %0, i64 1
  store i8 %19, ptr %20, align 1, !tbaa !23
  %21 = add i32 %3, -1
  %22 = icmp sgt i32 %3, 2
  br i1 %22, label %.lr.ph.preheader, label %._crit_edge

.lr.ph.preheader:                                 ; preds = %10
  %wide.trip.count = zext nneg i32 %21 to i64
  br label %.lr.ph

.lr.ph:                                           ; preds = %.lr.ph.preheader, %.lr.ph
  %indvars.iv = phi i64 [ 1, %.lr.ph.preheader ], [ %indvars.iv.next, %.lr.ph ]
  %23 = getelementptr inbounds nuw i8, ptr %1, i64 %indvars.iv
  %24 = load i8, ptr %23, align 1, !tbaa !23
  %25 = zext i8 %24 to i32
  %26 = mul nuw nsw i32 %25, 3
  %27 = add nuw nsw i32 %26, 2
  %28 = getelementptr i8, ptr %23, i64 -1
  %29 = load i8, ptr %28, align 1, !tbaa !23
  %30 = zext i8 %29 to i32
  %31 = add nuw nsw i32 %27, %30
  %32 = lshr i32 %31, 2
  %33 = trunc nuw i32 %32 to i8
  %34 = shl nuw nsw i64 %indvars.iv, 1
  %35 = getelementptr inbounds nuw i8, ptr %0, i64 %34
  store i8 %33, ptr %35, align 1, !tbaa !23
  %indvars.iv.next = add nuw nsw i64 %indvars.iv, 1
  %36 = getelementptr inbounds nuw i8, ptr %1, i64 %indvars.iv.next
  %37 = load i8, ptr %36, align 1, !tbaa !23
  %38 = zext i8 %37 to i32
  %39 = add nuw nsw i32 %27, %38
  %40 = lshr i32 %39, 2
  %41 = trunc nuw i32 %40 to i8
  %42 = or disjoint i64 %34, 1
  %43 = getelementptr inbounds nuw i8, ptr %0, i64 %42
  store i8 %41, ptr %43, align 1, !tbaa !23
  %exitcond.not = icmp eq i64 %indvars.iv.next, %wide.trip.count
  br i1 %exitcond.not, label %._crit_edge.loopexit, label %.lr.ph, !llvm.loop !276

._crit_edge.loopexit:                             ; preds = %.lr.ph
  %44 = shl nuw nsw i32 %21, 1
  br label %._crit_edge

._crit_edge:                                      ; preds = %._crit_edge.loopexit, %10
  %.037.lcssa = phi i32 [ 2, %10 ], [ %44, %._crit_edge.loopexit ]
  %45 = sext i32 %3 to i64
  %46 = getelementptr i8, ptr %1, i64 %45
  %47 = getelementptr i8, ptr %46, i64 -2
  %48 = load i8, ptr %47, align 1, !tbaa !23
  %49 = zext i8 %48 to i16
  %50 = mul nuw nsw i16 %49, 3
  %51 = sext i32 %21 to i64
  %52 = getelementptr inbounds i8, ptr %1, i64 %51
  %53 = load i8, ptr %52, align 1, !tbaa !23
  %54 = zext i8 %53 to i16
  %55 = add nuw nsw i16 %54, 2
  %56 = add nuw nsw i16 %55, %50
  %57 = lshr i16 %56, 2
  %58 = trunc nuw i16 %57 to i8
  %59 = zext nneg i32 %.037.lcssa to i64
  %60 = getelementptr inbounds nuw i8, ptr %0, i64 %59
  store i8 %58, ptr %60, align 1, !tbaa !23
  %61 = load i8, ptr %52, align 1, !tbaa !23
  %62 = or disjoint i32 %.037.lcssa, 1
  %63 = zext nneg i32 %62 to i64
  %64 = getelementptr inbounds nuw i8, ptr %0, i64 %63
  store i8 %61, ptr %64, align 1, !tbaa !23
  br label %65

65:                                               ; preds = %._crit_edge, %8
  ret ptr %0
}